target datalayout = "e-m:e-p270:32:32-p271:32:32-p272:64:64-i64:64-i128:128-f80:128-n8:16:32:64-S128"
target triple = "x86_64-pc-linux-gnu"

%struct.PLpgSQL_execstate = type { ptr, ptr, ptr, i64, i8, i32, i32, i8, i8, i8, i8, ptr, ptr, ptr, ptr, ptr, ptr, ptr, i32, i32, ptr, ptr, ptr, ptr, ptr, ptr, ptr, ptr, ptr, ptr, i64, ptr, ptr, ptr, ptr, ptr }
%struct.ExprContext = type { i32, ptr, ptr, ptr, ptr, ptr, ptr, ptr, ptr, ptr, i64, i8, i64, i8, ptr, ptr, ptr, ptr }
%struct.PLpgSQL_rec = type { i32, i32, ptr, i32, i8, i8, ptr, ptr, i32, i32, ptr }
%struct.ExpandedRecordHeader = type { %struct.ExpandedObjectHeader, i32, i32, i32, i32, i32, ptr, i64, ptr, ptr, i32, i64, i64, i32, i8, ptr, ptr, ptr, ptr, ptr, ptr, %struct.MemoryContextCallback }
%struct.ExpandedObjectHeader = type { i32, ptr, ptr, [10 x i8], [10 x i8] }
%struct.MemoryContextCallback = type { ptr, ptr, ptr }

; Function Attrs: inlinehint nounwind uwtable
define internal ptr @expanded_record_get_tupdesc(ptr noundef %0) #2 {
  %2 = alloca ptr, align 8
  %3 = alloca ptr, align 8
  store ptr %0, ptr %3, align 8
  %4 = load ptr, ptr %3, align 8
  %5 = getelementptr inbounds nuw %struct.ExpandedRecordHeader, ptr %4, i32 0, i32 6
  %6 = load ptr, ptr %5, align 8
  %7 = icmp ne ptr %6, null
  %8 = zext i1 %7 to i32
  %9 = icmp ne i32 %8, 0
  %10 = zext i1 %9 to i32
  %11 = sext i32 %10 to i64
  %12 = call i64 @llvm.expect.i64(i64 %11, i64 1)
  %13 = icmp ne i64 %12, 0
  br i1 %13, label %14, label %18

14:                                               ; preds = %1
  %15 = load ptr, ptr %3, align 8
  %16 = getelementptr inbounds nuw %struct.ExpandedRecordHeader, ptr %15, i32 0, i32 6
  %17 = load ptr, ptr %16, align 8
  store ptr %17, ptr %2, align 8
  br label %21

18:                                               ; preds = %1
  %19 = load ptr, ptr %3, align 8
  %20 = call ptr @expanded_record_fetch_tupdesc(ptr noundef %19)
  store ptr %20, ptr %2, align 8
  br label %21

21:                                               ; preds = %18, %14
  %22 = load ptr, ptr %2, align 8
  ret ptr %22
}

; Function Attrs: nounwind uwtable
define internal ptr @make_expanded_record_for_rec(ptr noundef %0, ptr noundef %1, ptr noundef %2, ptr noundef %3) #0 {
  %5 = alloca ptr, align 8
  %6 = alloca ptr, align 8
  %7 = alloca ptr, align 8
  %8 = alloca ptr, align 8
  %9 = alloca ptr, align 8
  %10 = alloca ptr, align 8
  store ptr %0, ptr %5, align 8
  store ptr %1, ptr %6, align 8
  store ptr %2, ptr %7, align 8
  store ptr %3, ptr %8, align 8
  call void @llvm.lifetime.start.p0(i64 8, ptr %9) #12
  call void @llvm.lifetime.start.p0(i64 8, ptr %10) #12
  %11 = load ptr, ptr %5, align 8
  %12 = getelementptr inbounds nuw %struct.PLpgSQL_execstate, ptr %11, i32 0, i32 31
  %13 = load ptr, ptr %12, align 8
  %14 = getelementptr inbounds nuw %struct.ExprContext, ptr %13, i32 0, i32 5
  %15 = load ptr, ptr %14, align 8
  store ptr %15, ptr %10, align 8
  %16 = load ptr, ptr %6, align 8
  %17 = getelementptr inbounds nuw %struct.PLpgSQL_rec, ptr %16, i32 0, i32 8
  %18 = load i32, ptr %17, align 8
  %19 = icmp ne i32 %18, 2249
  br i1 %19, label %20, label %43

20:                                               ; preds = %4
  %21 = load ptr, ptr %6, align 8
  call void @revalidate_rectypeid(ptr noundef %21)
  %22 = load ptr, ptr %8, align 8
  %23 = icmp ne ptr %22, null
  br i1 %23, label %24, label %36

24:                                               ; preds = %20
  %25 = load ptr, ptr %6, align 8
  %26 = getelementptr inbounds nuw %struct.PLpgSQL_rec, ptr %25, i32 0, i32 8
  %27 = load i32, ptr %26, align 8
  %28 = load ptr, ptr %8, align 8
  %29 = getelementptr inbounds nuw %struct.ExpandedRecordHeader, ptr %28, i32 0, i32 3
  %30 = load i32, ptr %29, align 8
  %31 = icmp eq i32 %27, %30
  br i1 %31, label %32, label %36

32:                                               ; preds = %24
  %33 = load ptr, ptr %8, align 8
  %34 = load ptr, ptr %10, align 8
  %35 = call ptr @make_expanded_record_from_exprecord(ptr noundef %33, ptr noundef %34)
  store ptr %35, ptr %9, align 8
  br label %42

36:                                               ; preds = %24, %20
  %37 = load ptr, ptr %6, align 8
  %38 = getelementptr inbounds nuw %struct.PLpgSQL_rec, ptr %37, i32 0, i32 8
  %39 = load i32, ptr %38, align 8
  %40 = load ptr, ptr %10, align 8
  %41 = call ptr @make_expanded_record_from_typeid(i32 noundef %39, i32 noundef -1, ptr noundef %40)
  store ptr %41, ptr %9, align 8
  br label %42

42:                                               ; preds = %36, %32
  br label %67

43:                                               ; preds = %4
  %44 = load ptr, ptr %8, align 8
  %45 = icmp ne ptr %44, null
  br i1 %45, label %46, label %56

46:                                               ; preds = %43
  %47 = load ptr, ptr %8, align 8
  %48 = getelementptr inbounds nuw %struct.ExpandedRecordHeader, ptr %47, i32 0, i32 2
  %49 = load i32, ptr %48, align 4
  %50 = and i32 %49, 64
  %51 = icmp ne i32 %50, 0
  br i1 %51, label %56, label %52

52:                                               ; preds = %46
  %53 = load ptr, ptr %8, align 8
  %54 = load ptr, ptr %10, align 8
  %55 = call ptr @make_expanded_record_from_exprecord(ptr noundef %53, ptr noundef %54)
  store ptr %55, ptr %9, align 8
  br label %66

56:                                               ; preds = %46, %43
  %57 = load ptr, ptr %7, align 8
  %58 = icmp ne ptr %57, null
  br i1 %58, label %62, label %59

59:                                               ; preds = %56
  %60 = load ptr, ptr %8, align 8
  %61 = call ptr @expanded_record_get_tupdesc(ptr noundef %60)
  store ptr %61, ptr %7, align 8
  br label %62

62:                                               ; preds = %59, %56
  %63 = load ptr, ptr %7, align 8
  %64 = load ptr, ptr %10, align 8
  %65 = call ptr @make_expanded_record_from_tupdesc(ptr noundef %63, ptr noundef %64)
  store ptr %65, ptr %9, align 8
  br label %66

66:                                               ; preds = %62, %52
  br label %67

67:                                               ; preds = %66, %42
  %68 = load ptr, ptr %9, align 8
  call void @llvm.lifetime.end.p0(i64 8, ptr %10) #12
  call void @llvm.lifetime.end.p0(i64 8, ptr %9) #12
  ret ptr %68
}