; Function Attrs: nounwind uwtable
define internal fastcc ptr @make_expanded_record_for_rec(ptr %.200.val.40.val, ptr noundef captures(none) %0, ptr noundef %1, ptr noundef %2) unnamed_addr #0 {
  %4 = getelementptr inbounds nuw i8, ptr %0, i64 40
  %5 = load i32, ptr %4, align 8
  %.not = icmp eq i32 %5, 2249
  br i1 %.not, label %15, label %6

6:                                                ; preds = %3
  tail call fastcc void @revalidate_rectypeid(ptr noundef nonnull %0)
  %.not25 = icmp eq ptr %2, null
  %.pre = load i32, ptr %4, align 8
  br i1 %.not25, label %13, label %7

7:                                                ; preds = %6
  %8 = getelementptr inbounds nuw i8, ptr %2, i64 56
  %9 = load i32, ptr %8, align 8
  %10 = icmp eq i32 %.pre, %9
  br i1 %10, label %11, label %13

11:                                               ; preds = %7
  %12 = tail call ptr @make_expanded_record_from_exprecord(ptr noundef nonnull %2, ptr noundef %.200.val.40.val) #12
  br label %29

13:                                               ; preds = %7, %6
  %14 = tail call ptr @make_expanded_record_from_typeid(i32 noundef %.pre, i32 noundef -1, ptr noundef %.200.val.40.val) #12
  br label %29

15:                                               ; preds = %3
  %.not22 = icmp eq ptr %2, null
  br i1 %.not22, label %22, label %16

16:                                               ; preds = %15
  %17 = getelementptr inbounds nuw i8, ptr %2, i64 52
  %18 = load i32, ptr %17, align 4
  %19 = and i32 %18, 64
  %.not23 = icmp eq i32 %19, 0
  br i1 %.not23, label %20, label %22

20:                                               ; preds = %16
  %21 = tail call ptr @make_expanded_record_from_exprecord(ptr noundef nonnull %2, ptr noundef %.200.val.40.val) #12
  br label %29

22:                                               ; preds = %16, %15
  %.not24 = icmp eq ptr %1, null
  br i1 %.not24, label %23, label %expanded_record_get_tupdesc.exit

23:                                               ; preds = %22
  %24 = getelementptr inbounds nuw i8, ptr %2, i64 72
  %25 = load ptr, ptr %24, align 8
  %.not.i = icmp eq ptr %25, null
  br i1 %.not.i, label %26, label %expanded_record_get_tupdesc.exit, !prof !9

26:                                               ; preds = %23
  %27 = tail call ptr @expanded_record_fetch_tupdesc(ptr noundef nonnull %2) #12
  br label %expanded_record_get_tupdesc.exit

expanded_record_get_tupdesc.exit:                 ; preds = %26, %23, %22
  %.0 = phi ptr [ %1, %22 ], [ %27, %26 ], [ %25, %23 ]
  %28 = tail call ptr @make_expanded_record_from_tupdesc(ptr noundef %.0, ptr noundef %.200.val.40.val) #12
  br label %29

29:                                               ; preds = %20, %expanded_record_get_tupdesc.exit, %11, %13
  %.019 = phi ptr [ %12, %11 ], [ %14, %13 ], [ %28, %expanded_record_get_tupdesc.exit ], [ %21, %20 ]
  ret ptr %.019
}